target datalayout = "e-m:e-p270:32:32-p271:32:32-p272:64:64-i64:64-i128:128-f80:128-n8:16:32:64-S128"
target triple = "x86_64-pc-linux-gnu"

%struct.OSSL_TIME = type { i64 }
%struct.crypto_ex_data_st = type { ptr, ptr }
%struct.CRYPTO_REF_COUNT = type { i32 }
%struct.srp_ctx_st = type { ptr, ptr, ptr, ptr, ptr, ptr, ptr, ptr, ptr, ptr, ptr, ptr, ptr, ptr, i32, i64 }
%struct.ssl_st = type { i32, ptr, ptr, ptr, %struct.CRYPTO_REF_COUNT, ptr, %struct.crypto_ex_data_st }
%struct.ssl_connection_st = type { %struct.ssl_st, ptr, i32, ptr, ptr, ptr, i32, ptr, i32, i32, i32, i32, %struct.OSSL_TIME, %struct.OSSL_TIME, %struct.ossl_statem_st, i32, ptr, ptr, i64, i64, i64, %struct.ossl_quic_tls_callbacks_st, ptr, ptr, %struct.anon, ptr, ptr, ptr, i32, ptr, %struct.ssl_dane_st, ptr, ptr, ptr, ptr, i32, [64 x i8], [64 x i8], [64 x i8], [64 x i8], [64 x i8], [64 x i8], [64 x i8], [64 x i8], [64 x i8], [64 x i8], [64 x i8], [64 x i8], ptr, [64 x i8], i64, i32, i64, [32 x i8], ptr, ptr, ptr, i64, ptr, [32 x i8], i64, i32, ptr, ptr, i32, i32, ptr, ptr, ptr, ptr, ptr, i64, ptr, ptr, i64, i32, i32, i32, i64, i32, i32, i64, i64, i64, %struct.anon.1, ptr, i32, ptr, ptr, ptr, i32, ptr, ptr, ptr, i32, i32, i32, i32, ptr, i64, i32, ptr, %struct.srp_ctx_st, ptr, %struct.record_layer_st, ptr, ptr, ptr, ptr, i64, i32, i32, i32, i64, i64, i64, ptr, ptr, ptr, ptr, ptr, i64, ptr, i64, ptr, i64 }
%struct.ossl_statem_st = type { i32, i32, i32, i32, i32, i32, i32, i32, i32, i32, i32, i32, i32, ptr, ptr, ptr, i8 }
%struct.ossl_quic_tls_callbacks_st = type { ptr, ptr, ptr, ptr, ptr, ptr }
%struct.anon = type { i64, [32 x i8], [32 x i8], ptr, ptr, i32, i32, i32, i32, [2 x i8], i32, i32, i32, i32, %struct.anon.0, [64 x i8], i64, [64 x i8], i64, i32, i32, ptr, i64, ptr, i64, i32, i8, i8, i16, ptr, i16 }
%struct.anon.0 = type { [128 x i8], i64, [128 x i8], i64, i64, i32, ptr, ptr, [4 x ptr], [4 x i16], i64, i32, ptr, i64, ptr, i64, ptr, ptr, ptr, i32, i64, ptr, i32, ptr, i64, ptr, i64, ptr, i64, ptr, ptr, ptr, ptr, i64, i64, ptr, ptr, i32, i32, i32, i32 }
%struct.ssl_dane_st = type { ptr, ptr, ptr, ptr, ptr, i32, i32, i32, i64 }
%struct.anon.1 = type { [29 x i8], ptr, ptr, ptr, i32, ptr, i16, i32, %struct.anon.2, i32, i32, i64, ptr, i64, ptr, i64, ptr, i64, ptr, i64, ptr, i64, ptr, ptr, ptr, ptr, ptr, ptr, ptr, i64, ptr, i64, i32, i32, i32, i32, ptr, i64, i32, i8, i32, [4 x i32], i32, i8, i8, i8, i8 }
%struct.anon.2 = type { ptr, ptr, ptr, i64 }
%struct.record_layer_st = type { ptr, ptr, ptr, ptr, ptr, ptr, ptr, ptr, i64, i32, i64, [4 x i8], i64, i64, i8, ptr, i32, ptr, ptr, ptr, i64, i64, i64, i64, [32 x %struct.tls_record_st] }
%struct.tls_record_st = type { ptr, i32, i8, ptr, ptr, i64, i64, i16, [8 x i8] }

@libctx = internal global ptr null, align 8
@.str.14 = private unnamed_addr constant [29 x i8] c"../openssl/test/sslapitest.c\00", align 1
@cert = internal global ptr null, align 8
@privkey = internal global ptr null, align 8
@.str.156 = private unnamed_addr constant [97 x i8] c"create_ssl_ctx_pair(libctx, smeth, cmeth, min_version, max_version, &sctx, &cctx, cert, privkey)\00", align 1
@.str.157 = private unnamed_addr constant [67 x i8] c"create_ssl_objects(sctx, cctx, &serverssl, &clientssl, NULL, NULL)\00", align 1
@.str.158 = private unnamed_addr constant [60 x i8] c"create_ssl_connection(serverssl, clientssl, SSL_ERROR_NONE)\00", align 1
@execute_cleanse_plaintext.cbuf = internal global [16000 x i8] zeroinitializer, align 16
@execute_cleanse_plaintext.sbuf = internal global [16000 x i8] zeroinitializer, align 16
@.str.180 = private unnamed_addr constant [53 x i8] c"SSL_set_options(serverssl, SSL_OP_CLEANSE_PLAINTEXT)\00", align 1
@.str.181 = private unnamed_addr constant [41 x i8] c"SSL_write(clientssl, cbuf, sizeof(cbuf))\00", align 1
@.str.182 = private unnamed_addr constant [13 x i8] c"sizeof(cbuf)\00", align 1
@.str.183 = private unnamed_addr constant [41 x i8] c"SSL_peek(serverssl, &sbuf, sizeof(sbuf))\00", align 1
@.str.184 = private unnamed_addr constant [13 x i8] c"sizeof(sbuf)\00", align 1
@.str.185 = private unnamed_addr constant [5 x i8] c"cbuf\00", align 1
@.str.186 = private unnamed_addr constant [5 x i8] c"sbuf\00", align 1
@.str.187 = private unnamed_addr constant [51 x i8] c"serversc = SSL_CONNECTION_FROM_SSL_ONLY(serverssl)\00", align 1
@.str.188 = private unnamed_addr constant [11 x i8] c"rr->length\00", align 1
@.str.189 = private unnamed_addr constant [5 x i8] c"zbuf\00", align 1
@.str.190 = private unnamed_addr constant [41 x i8] c"SSL_read(serverssl, &sbuf, sizeof(sbuf))\00", align 1

; Function Attrs: nounwind uwtable
define internal i32 @execute_cleanse_plaintext(ptr noundef %0, ptr noundef %1, i32 noundef %2, i32 noundef %3) #0 {
  %5 = alloca ptr, align 8
  %6 = alloca ptr, align 8
  %7 = alloca i32, align 4
  %8 = alloca i32, align 4
  %9 = alloca i64, align 8
  %10 = alloca ptr, align 8
  %11 = alloca ptr, align 8
  %12 = alloca ptr, align 8
  %13 = alloca ptr, align 8
  %14 = alloca i32, align 4
  %15 = alloca ptr, align 8
  %16 = alloca ptr, align 8
  %17 = alloca ptr, align 8
  store ptr %0, ptr %5, align 8, !tbaa !23
  store ptr %1, ptr %6, align 8, !tbaa !23
  store i32 %2, ptr %7, align 4, !tbaa !13
  store i32 %3, ptr %8, align 4, !tbaa !13
  call void @llvm.lifetime.start.p0(i64 8, ptr %9) #9
  call void @llvm.lifetime.start.p0(i64 8, ptr %10) #9
  store ptr null, ptr %10, align 8, !tbaa !19
  call void @llvm.lifetime.start.p0(i64 8, ptr %11) #9
  store ptr null, ptr %11, align 8, !tbaa !19
  call void @llvm.lifetime.start.p0(i64 8, ptr %12) #9
  store ptr null, ptr %12, align 8, !tbaa !21
  call void @llvm.lifetime.start.p0(i64 8, ptr %13) #9
  store ptr null, ptr %13, align 8, !tbaa !21
  call void @llvm.lifetime.start.p0(i64 4, ptr %14) #9
  store i32 0, ptr %14, align 4, !tbaa !13
  call void @llvm.lifetime.start.p0(i64 8, ptr %15) #9
  call void @llvm.lifetime.start.p0(i64 8, ptr %16) #9
  call void @llvm.lifetime.start.p0(i64 8, ptr %17) #9
  %18 = load ptr, ptr @libctx, align 8, !tbaa !4
  %19 = load ptr, ptr %5, align 8, !tbaa !23
  %20 = load ptr, ptr %6, align 8, !tbaa !23
  %21 = load i32, ptr %7, align 4, !tbaa !13
  %22 = load i32, ptr %8, align 4, !tbaa !13
  %23 = load ptr, ptr @cert, align 8, !tbaa !11
  %24 = load ptr, ptr @privkey, align 8, !tbaa !11
  %25 = call i32 @create_ssl_ctx_pair(ptr noundef %18, ptr noundef %19, ptr noundef %20, i32 noundef %21, i32 noundef %22, ptr noundef %11, ptr noundef %10, ptr noundef %23, ptr noundef %24)
  %26 = icmp ne i32 %25, 0
  %27 = zext i1 %26 to i32
  %28 = call i32 @test_true(ptr noundef @.str.14, i32 noundef 1727, ptr noundef @.str.156, i32 noundef %27)
  %29 = icmp ne i32 %28, 0
  br i1 %29, label %31, label %30

30:                                               ; preds = %4
  br label %145

31:                                               ; preds = %4
  %32 = load ptr, ptr %11, align 8, !tbaa !19
  %33 = load ptr, ptr %10, align 8, !tbaa !19
  %34 = call i32 @create_ssl_objects(ptr noundef %32, ptr noundef %33, ptr noundef %13, ptr noundef %12, ptr noundef null, ptr noundef null)
  %35 = icmp ne i32 %34, 0
  %36 = zext i1 %35 to i32
  %37 = call i32 @test_true(ptr noundef @.str.14, i32 noundef 1749, ptr noundef @.str.157, i32 noundef %36)
  %38 = icmp ne i32 %37, 0
  br i1 %38, label %40, label %39

39:                                               ; preds = %31
  br label %145

40:                                               ; preds = %31
  %41 = load ptr, ptr %13, align 8, !tbaa !21
  %42 = call i64 @SSL_set_options(ptr noundef %41, i64 noundef 2)
  %43 = icmp ne i64 %42, 0
  %44 = zext i1 %43 to i32
  %45 = call i32 @test_true(ptr noundef @.str.14, i32 noundef 1752, ptr noundef @.str.180, i32 noundef %44)
  %46 = icmp ne i32 %45, 0
  br i1 %46, label %48, label %47

47:                                               ; preds = %40
  br label %145

48:                                               ; preds = %40
  %49 = load ptr, ptr %13, align 8, !tbaa !21
  %50 = load ptr, ptr %12, align 8, !tbaa !21
  %51 = call i32 @create_ssl_connection(ptr noundef %49, ptr noundef %50, i32 noundef 0)
  %52 = icmp ne i32 %51, 0
  %53 = zext i1 %52 to i32
  %54 = call i32 @test_true(ptr noundef @.str.14, i32 noundef 1756, ptr noundef @.str.158, i32 noundef %53)
  %55 = icmp ne i32 %54, 0
  br i1 %55, label %57, label %56

56:                                               ; preds = %48
  br label %145

57:                                               ; preds = %48
  store i64 0, ptr %9, align 8, !tbaa !17
  br label %58

58:                                               ; preds = %67, %57
  %59 = load i64, ptr %9, align 8, !tbaa !17
  %60 = icmp ult i64 %59, 16000
  br i1 %60, label %61, label %70

61:                                               ; preds = %58
  %62 = load i64, ptr %9, align 8, !tbaa !17
  %63 = and i64 %62, 255
  %64 = trunc i64 %63 to i8
  %65 = load i64, ptr %9, align 8, !tbaa !17
  %66 = getelementptr inbounds nuw [16000 x i8], ptr @execute_cleanse_plaintext.cbuf, i64 0, i64 %65
  store i8 %64, ptr %66, align 1, !tbaa !35
  br label %67

67:                                               ; preds = %61
  %68 = load i64, ptr %9, align 8, !tbaa !17
  %69 = add i64 %68, 1
  store i64 %69, ptr %9, align 8, !tbaa !17
  br label %58, !llvm.loop !167

70:                                               ; preds = %58
  %71 = load ptr, ptr %12, align 8, !tbaa !21
  %72 = call i32 @SSL_write(ptr noundef %71, ptr noundef @execute_cleanse_plaintext.cbuf, i32 noundef 16000)
  %73 = call i32 @test_int_eq(ptr noundef @.str.14, i32 noundef 1763, ptr noundef @.str.181, ptr noundef @.str.182, i32 noundef %72, i32 noundef 16000)
  %74 = icmp ne i32 %73, 0
  br i1 %74, label %76, label %75

75:                                               ; preds = %70
  br label %145

76:                                               ; preds = %70
  %77 = load ptr, ptr %13, align 8, !tbaa !21
  %78 = call i32 @SSL_peek(ptr noundef %77, ptr noundef @execute_cleanse_plaintext.sbuf, i32 noundef 16000)
  %79 = call i32 @test_int_eq(ptr noundef @.str.14, i32 noundef 1766, ptr noundef @.str.183, ptr noundef @.str.184, i32 noundef %78, i32 noundef 16000)
  %80 = icmp ne i32 %79, 0
  br i1 %80, label %82, label %81

81:                                               ; preds = %76
  br label %145

82:                                               ; preds = %76
  %83 = call i32 @test_mem_eq(ptr noundef @.str.14, i32 noundef 1769, ptr noundef @.str.185, ptr noundef @.str.186, ptr noundef @execute_cleanse_plaintext.cbuf, i64 noundef 16000, ptr noundef @execute_cleanse_plaintext.sbuf, i64 noundef 16000)
  %84 = icmp ne i32 %83, 0
  br i1 %84, label %86, label %85

85:                                               ; preds = %82
  br label %145

86:                                               ; preds = %82
  %87 = load ptr, ptr %13, align 8, !tbaa !21
  %88 = icmp eq ptr %87, null
  br i1 %88, label %89, label %90

89:                                               ; preds = %86
  br label %100

90:                                               ; preds = %86
  %91 = load ptr, ptr %13, align 8, !tbaa !21
  %92 = getelementptr inbounds nuw %struct.ssl_st, ptr %91, i32 0, i32 0
  %93 = load i32, ptr %92, align 8, !tbaa !168
  %94 = icmp eq i32 %93, 0
  br i1 %94, label %95, label %97

95:                                               ; preds = %90
  %96 = load ptr, ptr %13, align 8, !tbaa !21
  br label %98

97:                                               ; preds = %90
  br label %98

98:                                               ; preds = %97, %95
  %99 = phi ptr [ %96, %95 ], [ null, %97 ]
  br label %100

100:                                              ; preds = %98, %89
  %101 = phi ptr [ null, %89 ], [ %99, %98 ]
  store ptr %101, ptr %16, align 8, !tbaa !170
  %102 = call i32 @test_ptr(ptr noundef @.str.14, i32 noundef 1777, ptr noundef @.str.187, ptr noundef %101)
  %103 = icmp ne i32 %102, 0
  br i1 %103, label %105, label %104

104:                                              ; preds = %100
  br label %145

105:                                              ; preds = %100
  %106 = load ptr, ptr %16, align 8, !tbaa !170
  %107 = getelementptr inbounds nuw %struct.ssl_connection_st, ptr %106, i32 0, i32 104
  %108 = getelementptr inbounds nuw %struct.record_layer_st, ptr %107, i32 0, i32 24
  %109 = getelementptr inbounds [32 x %struct.tls_record_st], ptr %108, i64 0, i64 0
  store ptr %109, ptr %17, align 8, !tbaa !172
  %110 = load ptr, ptr %17, align 8, !tbaa !172
  %111 = getelementptr inbounds nuw %struct.tls_record_st, ptr %110, i32 0, i32 3
  %112 = load ptr, ptr %111, align 8, !tbaa !174
  %113 = load ptr, ptr %17, align 8, !tbaa !172
  %114 = getelementptr inbounds nuw %struct.tls_record_st, ptr %113, i32 0, i32 6
  %115 = load i64, ptr %114, align 8, !tbaa !176
  %116 = getelementptr inbounds nuw i8, ptr %112, i64 %115
  store ptr %116, ptr %15, align 8, !tbaa !11
  %117 = load ptr, ptr %17, align 8, !tbaa !172
  %118 = getelementptr inbounds nuw %struct.tls_record_st, ptr %117, i32 0, i32 5
  %119 = load i64, ptr %118, align 8, !tbaa !177
  %120 = trunc i64 %119 to i32
  %121 = call i32 @test_int_eq(ptr noundef @.str.14, i32 noundef 1782, ptr noundef @.str.188, ptr noundef @.str.182, i32 noundef %120, i32 noundef 16000)
  %122 = icmp ne i32 %121, 0
  br i1 %122, label %124, label %123

123:                                              ; preds = %105
  br label %145

124:                                              ; preds = %105
  %125 = load ptr, ptr %15, align 8, !tbaa !11
  %126 = call i32 @test_mem_eq(ptr noundef @.str.14, i32 noundef 1789, ptr noundef @.str.185, ptr noundef @.str.189, ptr noundef @execute_cleanse_plaintext.cbuf, i64 noundef 16000, ptr noundef %125, i64 noundef 16000)
  %127 = icmp ne i32 %126, 0
  br i1 %127, label %129, label %128

128:                                              ; preds = %124
  br label %145

129:                                              ; preds = %124
  call void @llvm.memset.p0.i64(ptr align 16 @execute_cleanse_plaintext.sbuf, i8 0, i64 16000, i1 false)
  %130 = load ptr, ptr %13, align 8, !tbaa !21
  %131 = call i32 @SSL_read(ptr noundef %130, ptr noundef @execute_cleanse_plaintext.sbuf, i32 noundef 16000)
  %132 = call i32 @test_int_eq(ptr noundef @.str.14, i32 noundef 1793, ptr noundef @.str.190, ptr noundef @.str.184, i32 noundef %131, i32 noundef 16000)
  %133 = icmp ne i32 %132, 0
  br i1 %133, label %135, label %134

134:                                              ; preds = %129
  br label %145

135:                                              ; preds = %129
  %136 = call i32 @test_mem_eq(ptr noundef @.str.14, i32 noundef 1796, ptr noundef @.str.185, ptr noundef @.str.186, ptr noundef @execute_cleanse_plaintext.cbuf, i64 noundef 16000, ptr noundef @execute_cleanse_plaintext.sbuf, i64 noundef 16000)
  %137 = icmp ne i32 %136, 0
  br i1 %137, label %139, label %138

138:                                              ; preds = %135
  br label %145

139:                                              ; preds = %135
  call void @llvm.memset.p0.i64(ptr align 16 @execute_cleanse_plaintext.cbuf, i8 0, i64 16000, i1 false)
  %140 = load ptr, ptr %15, align 8, !tbaa !11
  %141 = call i32 @test_mem_eq(ptr noundef @.str.14, i32 noundef 1801, ptr noundef @.str.185, ptr noundef @.str.189, ptr noundef @execute_cleanse_plaintext.cbuf, i64 noundef 16000, ptr noundef %140, i64 noundef 16000)
  %142 = icmp ne i32 %141, 0
  br i1 %142, label %144, label %143

143:                                              ; preds = %139
  br label %145

144:                                              ; preds = %139
  store i32 1, ptr %14, align 4, !tbaa !13
  br label %145

145:                                              ; preds = %144, %143, %138, %134, %128, %123, %104, %85, %81, %75, %56, %47, %39, %30
  %146 = load ptr, ptr %13, align 8, !tbaa !21
  call void @SSL_free(ptr noundef %146)
  %147 = load ptr, ptr %12, align 8, !tbaa !21
  call void @SSL_free(ptr noundef %147)
  %148 = load ptr, ptr %11, align 8, !tbaa !19
  call void @SSL_CTX_free(ptr noundef %148)
  %149 = load ptr, ptr %10, align 8, !tbaa !19
  call void @SSL_CTX_free(ptr noundef %149)
  %150 = load i32, ptr %14, align 4, !tbaa !13
  call void @llvm.lifetime.end.p0(i64 8, ptr %17) #9
  call void @llvm.lifetime.end.p0(i64 8, ptr %16) #9
  call void @llvm.lifetime.end.p0(i64 8, ptr %15) #9
  call void @llvm.lifetime.end.p0(i64 4, ptr %14) #9
  call void @llvm.lifetime.end.p0(i64 8, ptr %13) #9
  call void @llvm.lifetime.end.p0(i64 8, ptr %12) #9
  call void @llvm.lifetime.end.p0(i64 8, ptr %11) #9
  call void @llvm.lifetime.end.p0(i64 8, ptr %10) #9
  call void @llvm.lifetime.end.p0(i64 8, ptr %9) #9
  ret i32 %150
}