; Function Attrs: nounwind uwtable
define internal fastcc range(i32 0, 2) i32 @execute_cleanse_plaintext(ptr noundef %0, ptr noundef %1, i32 noundef range(i32 771, 65280) %2, i32 noundef range(i32 0, 773) %3) unnamed_addr #1 {
  %5 = alloca ptr, align 8
  %6 = alloca ptr, align 8
  %7 = alloca ptr, align 8
  %8 = alloca ptr, align 8
  call void @llvm.lifetime.start.p0(i64 8, ptr nonnull %5) #24
  store ptr null, ptr %5, align 8, !tbaa !19
  call void @llvm.lifetime.start.p0(i64 8, ptr nonnull %6) #24
  store ptr null, ptr %6, align 8, !tbaa !19
  call void @llvm.lifetime.start.p0(i64 8, ptr nonnull %7) #24
  store ptr null, ptr %7, align 8, !tbaa !21
  call void @llvm.lifetime.start.p0(i64 8, ptr nonnull %8) #24
  store ptr null, ptr %8, align 8, !tbaa !21
  %9 = load ptr, ptr @libctx, align 8, !tbaa !4
  %10 = load ptr, ptr @cert, align 8, !tbaa !11
  %11 = load ptr, ptr @privkey, align 8, !tbaa !11
  %12 = call i32 @create_ssl_ctx_pair(ptr noundef %9, ptr noundef %0, ptr noundef %1, i32 noundef %2, i32 noundef %3, ptr noundef nonnull %6, ptr noundef nonnull %5, ptr noundef %10, ptr noundef %11) #24
  %13 = icmp ne i32 %12, 0
  %14 = zext i1 %13 to i32
  %15 = call i32 @test_true(ptr noundef nonnull @.str.14, i32 noundef 1727, ptr noundef nonnull @.str.156, i32 noundef %14) #24
  %.not = icmp eq i32 %15, 0
  br i1 %.not, label %79, label %16

16:                                               ; preds = %4
  %17 = load ptr, ptr %6, align 8, !tbaa !19
  %18 = load ptr, ptr %5, align 8, !tbaa !19
  %19 = call i32 @create_ssl_objects(ptr noundef %17, ptr noundef %18, ptr noundef nonnull %8, ptr noundef nonnull %7, ptr noundef null, ptr noundef null) #24
  %20 = icmp ne i32 %19, 0
  %21 = zext i1 %20 to i32
  %22 = call i32 @test_true(ptr noundef nonnull @.str.14, i32 noundef 1749, ptr noundef nonnull @.str.157, i32 noundef %21) #24
  %.not16 = icmp eq i32 %22, 0
  br i1 %.not16, label %79, label %23

23:                                               ; preds = %16
  %24 = load ptr, ptr %8, align 8, !tbaa !21
  %25 = call i64 @SSL_set_options(ptr noundef %24, i64 noundef 2) #24
  %26 = icmp ne i64 %25, 0
  %27 = zext i1 %26 to i32
  %28 = call i32 @test_true(ptr noundef nonnull @.str.14, i32 noundef 1752, ptr noundef nonnull @.str.180, i32 noundef %27) #24
  %.not17 = icmp eq i32 %28, 0
  br i1 %.not17, label %79, label %29

29:                                               ; preds = %23
  %30 = load ptr, ptr %8, align 8, !tbaa !21
  %31 = load ptr, ptr %7, align 8, !tbaa !21
  %32 = call i32 @create_ssl_connection(ptr noundef %30, ptr noundef %31, i32 noundef 0) #24
  %33 = icmp ne i32 %32, 0
  %34 = zext i1 %33 to i32
  %35 = call i32 @test_true(ptr noundef nonnull @.str.14, i32 noundef 1756, ptr noundef nonnull @.str.158, i32 noundef %34) #24
  %.not18 = icmp eq i32 %35, 0
  br i1 %.not18, label %79, label %.preheader

.preheader:                                       ; preds = %29, %.preheader
  %.028 = phi i64 [ %38, %.preheader ], [ 0, %29 ]
  %36 = trunc i64 %.028 to i8
  %37 = getelementptr inbounds nuw [16000 x i8], ptr @execute_cleanse_plaintext.cbuf, i64 0, i64 %.028
  store i8 %36, ptr %37, align 1, !tbaa !27
  %38 = add nuw nsw i64 %.028, 1
  %exitcond.not = icmp eq i64 %38, 16000
  br i1 %exitcond.not, label %39, label %.preheader, !llvm.loop !161

39:                                               ; preds = %.preheader
  %40 = load ptr, ptr %7, align 8, !tbaa !21
  %41 = call i32 @SSL_write(ptr noundef %40, ptr noundef nonnull @execute_cleanse_plaintext.cbuf, i32 noundef 16000) #24
  %42 = call i32 @test_int_eq(ptr noundef nonnull @.str.14, i32 noundef 1763, ptr noundef nonnull @.str.181, ptr noundef nonnull @.str.182, i32 noundef %41, i32 noundef 16000) #24
  %.not19 = icmp eq i32 %42, 0
  br i1 %.not19, label %79, label %43

43:                                               ; preds = %39
  %44 = load ptr, ptr %8, align 8, !tbaa !21
  %45 = call i32 @SSL_peek(ptr noundef %44, ptr noundef nonnull @execute_cleanse_plaintext.sbuf, i32 noundef 16000) #24
  %46 = call i32 @test_int_eq(ptr noundef nonnull @.str.14, i32 noundef 1766, ptr noundef nonnull @.str.183, ptr noundef nonnull @.str.184, i32 noundef %45, i32 noundef 16000) #24
  %.not20 = icmp eq i32 %46, 0
  br i1 %.not20, label %79, label %47

47:                                               ; preds = %43
  %48 = call i32 @test_mem_eq(ptr noundef nonnull @.str.14, i32 noundef 1769, ptr noundef nonnull @.str.185, ptr noundef nonnull @.str.186, ptr noundef nonnull @execute_cleanse_plaintext.cbuf, i64 noundef 16000, ptr noundef nonnull @execute_cleanse_plaintext.sbuf, i64 noundef 16000) #24
  %.not21 = icmp eq i32 %48, 0
  br i1 %.not21, label %79, label %49

49:                                               ; preds = %47
  %50 = load ptr, ptr %8, align 8, !tbaa !21
  %51 = icmp eq ptr %50, null
  br i1 %51, label %56, label %52

52:                                               ; preds = %49
  %53 = load i32, ptr %50, align 8, !tbaa !162
  %54 = icmp eq i32 %53, 0
  %55 = select i1 %54, ptr %50, ptr null
  br label %56

56:                                               ; preds = %49, %52
  %57 = phi ptr [ %55, %52 ], [ null, %49 ]
  %58 = call i32 @test_ptr(ptr noundef nonnull @.str.14, i32 noundef 1777, ptr noundef nonnull @.str.187, ptr noundef %57) #24
  %.not22 = icmp eq i32 %58, 0
  br i1 %.not22, label %79, label %59

59:                                               ; preds = %56
  %60 = getelementptr inbounds nuw i8, ptr %57, i64 3368
  %61 = load ptr, ptr %60, align 8, !tbaa !164
  %62 = getelementptr inbounds nuw i8, ptr %57, i64 3392
  %63 = load i64, ptr %62, align 8, !tbaa !166
  %64 = getelementptr inbounds nuw i8, ptr %61, i64 %63
  %65 = getelementptr inbounds nuw i8, ptr %57, i64 3384
  %66 = load i64, ptr %65, align 8, !tbaa !167
  %67 = trunc i64 %66 to i32
  %68 = call i32 @test_int_eq(ptr noundef nonnull @.str.14, i32 noundef 1782, ptr noundef nonnull @.str.188, ptr noundef nonnull @.str.182, i32 noundef %67, i32 noundef 16000) #24
  %.not23 = icmp eq i32 %68, 0
  br i1 %.not23, label %79, label %69

69:                                               ; preds = %59
  %70 = call i32 @test_mem_eq(ptr noundef nonnull @.str.14, i32 noundef 1789, ptr noundef nonnull @.str.185, ptr noundef nonnull @.str.189, ptr noundef nonnull @execute_cleanse_plaintext.cbuf, i64 noundef 16000, ptr noundef %64, i64 noundef 16000) #24
  %.not24 = icmp eq i32 %70, 0
  br i1 %.not24, label %79, label %71

71:                                               ; preds = %69
  call void @llvm.memset.p0.i64(ptr noundef nonnull align 16 dereferenceable(16000) @execute_cleanse_plaintext.sbuf, i8 0, i64 16000, i1 false)
  %72 = load ptr, ptr %8, align 8, !tbaa !21
  %73 = call i32 @SSL_read(ptr noundef %72, ptr noundef nonnull @execute_cleanse_plaintext.sbuf, i32 noundef 16000) #24
  %74 = call i32 @test_int_eq(ptr noundef nonnull @.str.14, i32 noundef 1793, ptr noundef nonnull @.str.190, ptr noundef nonnull @.str.184, i32 noundef %73, i32 noundef 16000) #24
  %.not25 = icmp eq i32 %74, 0
  br i1 %.not25, label %79, label %75

75:                                               ; preds = %71
  %76 = call i32 @test_mem_eq(ptr noundef nonnull @.str.14, i32 noundef 1796, ptr noundef nonnull @.str.185, ptr noundef nonnull @.str.186, ptr noundef nonnull @execute_cleanse_plaintext.cbuf, i64 noundef 16000, ptr noundef nonnull @execute_cleanse_plaintext.sbuf, i64 noundef 16000) #24
  %.not26 = icmp eq i32 %76, 0
  br i1 %.not26, label %79, label %77

77:                                               ; preds = %75
  call void @llvm.memset.p0.i64(ptr noundef nonnull align 16 dereferenceable(16000) @execute_cleanse_plaintext.cbuf, i8 0, i64 16000, i1 false)
  %78 = call i32 @test_mem_eq(ptr noundef nonnull @.str.14, i32 noundef 1801, ptr noundef nonnull @.str.185, ptr noundef nonnull @.str.189, ptr noundef nonnull @execute_cleanse_plaintext.cbuf, i64 noundef 16000, ptr noundef %64, i64 noundef 16000) #24
  %.not27 = icmp ne i32 %78, 0
  %spec.select = zext i1 %.not27 to i32
  br label %79

79:                                               ; preds = %77, %75, %71, %69, %59, %56, %47, %43, %39, %29, %23, %16, %4
  %.014 = phi i32 [ 0, %75 ], [ 0, %71 ], [ 0, %69 ], [ 0, %59 ], [ 0, %56 ], [ 0, %47 ], [ 0, %43 ], [ 0, %39 ], [ 0, %29 ], [ 0, %23 ], [ 0, %16 ], [ 0, %4 ], [ %spec.select, %77 ]
  %80 = load ptr, ptr %8, align 8, !tbaa !21
  call void @SSL_free(ptr noundef %80) #24
  %81 = load ptr, ptr %7, align 8, !tbaa !21
  call void @SSL_free(ptr noundef %81) #24
  %82 = load ptr, ptr %6, align 8, !tbaa !19
  call void @SSL_CTX_free(ptr noundef %82) #24
  %83 = load ptr, ptr %5, align 8, !tbaa !19
  call void @SSL_CTX_free(ptr noundef %83) #24
  call void @llvm.lifetime.end.p0(i64 8, ptr nonnull %8) #24
  call void @llvm.lifetime.end.p0(i64 8, ptr nonnull %7) #24
  call void @llvm.lifetime.end.p0(i64 8, ptr nonnull %6) #24
  call void @llvm.lifetime.end.p0(i64 8, ptr nonnull %5) #24
  ret i32 %.014
}